target datalayout = "e-m:e-p270:32:32-p271:32:32-p272:64:64-i64:64-i128:128-f80:128-n8:16:32:64-S128"
target triple = "x86_64-pc-linux-gnu"

%struct.SDL_DriverWii_Context = type { ptr, ptr, i64, i32, i32, i8, i32, i8, i8, i8, i8, [22 x i8], i64, i64, i64, i8, [6 x %struct.StickCalibrationData] }
%struct.StickCalibrationData = type { i16, i16, i16, i16 }
%struct.SDL_HIDAPI_Device = type { ptr, ptr, ptr, ptr, i16, i16, i16, ptr, %struct.SDL_GUID, i32, i32, i32, i32, i16, i16, i8, i32, i32, i32, ptr, ptr, ptr, ptr, %struct.SDL_AtomicInt, i32, ptr, i8, i8, i8, ptr, i32, ptr, ptr }
%struct.SDL_GUID = type { [16 x i8] }
%struct.SDL_AtomicInt = type { i32 }

; Function Attrs: nounwind uwtable
define internal zeroext i1 @WriteOutput(ptr noundef %0, ptr noundef %1, i32 noundef %2, i1 noundef zeroext %3) #0 {
  %5 = alloca i1, align 1
  %6 = alloca ptr, align 8
  %7 = alloca ptr, align 8
  %8 = alloca i32, align 4
  %9 = alloca i8, align 1
  store ptr %0, ptr %6, align 8
  store ptr %1, ptr %7, align 8
  store i32 %2, ptr %8, align 4
  %10 = zext i1 %3 to i8
  store i8 %10, ptr %9, align 1
  %11 = load i8, ptr %9, align 1, !range !5, !noundef !6
  %12 = trunc i8 %11 to i1
  br i1 %12, label %13, label %24

13:                                               ; preds = %4
  %14 = load ptr, ptr %6, align 8
  %15 = getelementptr inbounds nuw %struct.SDL_DriverWii_Context, ptr %14, i32 0, i32 0
  %16 = load ptr, ptr %15, align 8
  %17 = getelementptr inbounds nuw %struct.SDL_HIDAPI_Device, ptr %16, i32 0, i32 22
  %18 = load ptr, ptr %17, align 8
  %19 = load ptr, ptr %7, align 8
  %20 = load i32, ptr %8, align 4
  %21 = sext i32 %20 to i64
  %22 = call i32 @SDL_hid_write_REAL(ptr noundef %18, ptr noundef %19, i64 noundef %21)
  %23 = icmp sge i32 %22, 0
  store i1 %23, ptr %5, align 1
  br label %35

24:                                               ; preds = %4
  %25 = call zeroext i1 @SDL_HIDAPI_LockRumble()
  br i1 %25, label %27, label %26

26:                                               ; preds = %24
  store i1 false, ptr %5, align 1
  br label %35

27:                                               ; preds = %24
  %28 = load ptr, ptr %6, align 8
  %29 = getelementptr inbounds nuw %struct.SDL_DriverWii_Context, ptr %28, i32 0, i32 0
  %30 = load ptr, ptr %29, align 8
  %31 = load ptr, ptr %7, align 8
  %32 = load i32, ptr %8, align 4
  %33 = call i32 @SDL_HIDAPI_SendRumbleAndUnlock(ptr noundef %30, ptr noundef %31, i32 noundef %32)
  %34 = icmp sge i32 %33, 0
  store i1 %34, ptr %5, align 1
  br label %35

35:                                               ; preds = %27, %26, %13
  %36 = load i1, ptr %5, align 1
  ret i1 %36
}

; Function Attrs: nounwind uwtable
define internal void @UpdateSlotLED(ptr noundef %0) #0 {
  %2 = alloca ptr, align 8
  %3 = alloca i8, align 1
  %4 = alloca [2 x i8], align 1
  store ptr %0, ptr %2, align 8
  call void @llvm.lifetime.start.p0(i64 1, ptr %3) #6
  call void @llvm.lifetime.start.p0(i64 2, ptr %4) #6
  %5 = load ptr, ptr %2, align 8
  %6 = getelementptr inbounds nuw %struct.SDL_DriverWii_Context, ptr %5, i32 0, i32 7
  %7 = load i8, ptr %6, align 8, !range !5, !noundef !6
  %8 = trunc i8 %7 to i1
  %9 = zext i1 %8 to i8
  store i8 %9, ptr %3, align 1
  %10 = load ptr, ptr %2, align 8
  %11 = getelementptr inbounds nuw %struct.SDL_DriverWii_Context, ptr %10, i32 0, i32 5
  %12 = load i8, ptr %11, align 8, !range !5, !noundef !6
  %13 = trunc i8 %12 to i1
  br i1 %13, label %14, label %90

14:                                               ; preds = %1
  %15 = load ptr, ptr %2, align 8
  %16 = getelementptr inbounds nuw %struct.SDL_DriverWii_Context, ptr %15, i32 0, i32 6
  %17 = load i32, ptr %16, align 4
  %18 = icmp eq i32 %17, 0
  br i1 %18, label %24, label %19

19:                                               ; preds = %14
  %20 = load ptr, ptr %2, align 8
  %21 = getelementptr inbounds nuw %struct.SDL_DriverWii_Context, ptr %20, i32 0, i32 6
  %22 = load i32, ptr %21, align 4
  %23 = icmp sgt i32 %22, 3
  br i1 %23, label %24, label %29

24:                                               ; preds = %19, %14
  %25 = load i8, ptr %3, align 1
  %26 = zext i8 %25 to i32
  %27 = or i32 %26, 16
  %28 = trunc i32 %27 to i8
  store i8 %28, ptr %3, align 1
  br label %29

29:                                               ; preds = %24, %19
  %30 = load ptr, ptr %2, align 8
  %31 = getelementptr inbounds nuw %struct.SDL_DriverWii_Context, ptr %30, i32 0, i32 6
  %32 = load i32, ptr %31, align 4
  %33 = icmp eq i32 %32, 1
  br i1 %33, label %39, label %34

34:                                               ; preds = %29
  %35 = load ptr, ptr %2, align 8
  %36 = getelementptr inbounds nuw %struct.SDL_DriverWii_Context, ptr %35, i32 0, i32 6
  %37 = load i32, ptr %36, align 4
  %38 = icmp eq i32 %37, 4
  br i1 %38, label %39, label %44

39:                                               ; preds = %34, %29
  %40 = load i8, ptr %3, align 1
  %41 = zext i8 %40 to i32
  %42 = or i32 %41, 32
  %43 = trunc i32 %42 to i8
  store i8 %43, ptr %3, align 1
  br label %44

44:                                               ; preds = %39, %34
  %45 = load ptr, ptr %2, align 8
  %46 = getelementptr inbounds nuw %struct.SDL_DriverWii_Context, ptr %45, i32 0, i32 6
  %47 = load i32, ptr %46, align 4
  %48 = icmp eq i32 %47, 2
  br i1 %48, label %54, label %49

49:                                               ; preds = %44
  %50 = load ptr, ptr %2, align 8
  %51 = getelementptr inbounds nuw %struct.SDL_DriverWii_Context, ptr %50, i32 0, i32 6
  %52 = load i32, ptr %51, align 4
  %53 = icmp eq i32 %52, 5
  br i1 %53, label %54, label %59

54:                                               ; preds = %49, %44
  %55 = load i8, ptr %3, align 1
  %56 = zext i8 %55 to i32
  %57 = or i32 %56, 64
  %58 = trunc i32 %57 to i8
  store i8 %58, ptr %3, align 1
  br label %59

59:                                               ; preds = %54, %49
  %60 = load ptr, ptr %2, align 8
  %61 = getelementptr inbounds nuw %struct.SDL_DriverWii_Context, ptr %60, i32 0, i32 6
  %62 = load i32, ptr %61, align 4
  %63 = icmp eq i32 %62, 3
  br i1 %63, label %69, label %64

64:                                               ; preds = %59
  %65 = load ptr, ptr %2, align 8
  %66 = getelementptr inbounds nuw %struct.SDL_DriverWii_Context, ptr %65, i32 0, i32 6
  %67 = load i32, ptr %66, align 4
  %68 = icmp eq i32 %67, 6
  br i1 %68, label %69, label %74

69:                                               ; preds = %64, %59
  %70 = load i8, ptr %3, align 1
  %71 = zext i8 %70 to i32
  %72 = or i32 %71, 128
  %73 = trunc i32 %72 to i8
  store i8 %73, ptr %3, align 1
  br label %74

74:                                               ; preds = %69, %64
  %75 = load ptr, ptr %2, align 8
  %76 = getelementptr inbounds nuw %struct.SDL_DriverWii_Context, ptr %75, i32 0, i32 6
  %77 = load i32, ptr %76, align 4
  %78 = icmp slt i32 %77, 0
  br i1 %78, label %84, label %79

79:                                               ; preds = %74
  %80 = load ptr, ptr %2, align 8
  %81 = getelementptr inbounds nuw %struct.SDL_DriverWii_Context, ptr %80, i32 0, i32 6
  %82 = load i32, ptr %81, align 4
  %83 = icmp sgt i32 %82, 6
  br i1 %83, label %84, label %89

84:                                               ; preds = %79, %74
  %85 = load i8, ptr %3, align 1
  %86 = zext i8 %85 to i32
  %87 = or i32 %86, 240
  %88 = trunc i32 %87 to i8
  store i8 %88, ptr %3, align 1
  br label %89

89:                                               ; preds = %84, %79
  br label %90

90:                                               ; preds = %89, %1
  %91 = getelementptr inbounds [2 x i8], ptr %4, i64 0, i64 0
  store i8 17, ptr %91, align 1
  %92 = load i8, ptr %3, align 1
  %93 = getelementptr inbounds [2 x i8], ptr %4, i64 0, i64 1
  store i8 %92, ptr %93, align 1
  %94 = load ptr, ptr %2, align 8
  %95 = getelementptr inbounds [2 x i8], ptr %4, i64 0, i64 0
  %96 = call zeroext i1 @WriteOutput(ptr noundef %94, ptr noundef %95, i32 noundef 2, i1 noundef zeroext false)
  call void @llvm.lifetime.end.p0(i64 2, ptr %4) #6
  call void @llvm.lifetime.end.p0(i64 1, ptr %3) #6
  ret void
}

; Function Attrs: nounwind uwtable
define internal void @SDL_PlayerLEDHintChanged(ptr noundef %0, ptr noundef %1, ptr noundef %2, ptr noundef %3) #0 {
  %5 = alloca ptr, align 8
  %6 = alloca ptr, align 8
  %7 = alloca ptr, align 8
  %8 = alloca ptr, align 8
  %9 = alloca ptr, align 8
  %10 = alloca i8, align 1
  store ptr %0, ptr %5, align 8
  store ptr %1, ptr %6, align 8
  store ptr %2, ptr %7, align 8
  store ptr %3, ptr %8, align 8
  call void @llvm.lifetime.start.p0(i64 8, ptr %9) #6
  %11 = load ptr, ptr %5, align 8
  store ptr %11, ptr %9, align 8
  call void @llvm.lifetime.start.p0(i64 1, ptr %10) #6
  %12 = load ptr, ptr %8, align 8
  %13 = call zeroext i1 @SDL_GetStringBoolean(ptr noundef %12, i1 noundef zeroext true)
  %14 = zext i1 %13 to i8
  store i8 %14, ptr %10, align 1
  %15 = load i8, ptr %10, align 1, !range !5, !noundef !6
  %16 = trunc i8 %15 to i1
  %17 = zext i1 %16 to i32
  %18 = load ptr, ptr %9, align 8
  %19 = getelementptr inbounds nuw %struct.SDL_DriverWii_Context, ptr %18, i32 0, i32 5
  %20 = load i8, ptr %19, align 8, !range !5, !noundef !6
  %21 = trunc i8 %20 to i1
  %22 = zext i1 %21 to i32
  %23 = icmp ne i32 %17, %22
  br i1 %23, label %24, label %31

24:                                               ; preds = %4
  %25 = load i8, ptr %10, align 1, !range !5, !noundef !6
  %26 = trunc i8 %25 to i1
  %27 = load ptr, ptr %9, align 8
  %28 = getelementptr inbounds nuw %struct.SDL_DriverWii_Context, ptr %27, i32 0, i32 5
  %29 = zext i1 %26 to i8
  store i8 %29, ptr %28, align 8
  %30 = load ptr, ptr %9, align 8
  call void @UpdateSlotLED(ptr noundef %30)
  br label %31

31:                                               ; preds = %24, %4
  call void @llvm.lifetime.end.p0(i64 1, ptr %10) #6
  call void @llvm.lifetime.end.p0(i64 8, ptr %9) #6
  ret void
}