; Function Attrs: nounwind uwtable
define internal void @SDL_PlayerLEDHintChanged(ptr noundef captures(none) %0, ptr readnone captures(none) %1, ptr readnone captures(none) %2, ptr noundef %3) #0 {
  %5 = alloca [2 x i8], align 1
  %6 = tail call zeroext i1 @SDL_GetStringBoolean(ptr noundef %3, i1 noundef zeroext true) #7
  %7 = getelementptr inbounds nuw i8, ptr %0, i64 32
  %8 = load i8, ptr %7, align 8, !range !5, !noundef !6
  %9 = zext i1 %6 to i8
  %.not = icmp eq i8 %8, %9
  br i1 %.not, label %35, label %10

10:                                               ; preds = %4
  store i8 %9, ptr %7, align 8
  call void @llvm.lifetime.start.p0(i64 2, ptr nonnull %5) #7
  %11 = getelementptr inbounds nuw i8, ptr %0, i64 40
  %12 = load i8, ptr %11, align 8, !range !5, !noundef !6
  br i1 %6, label %13, label %29

13:                                               ; preds = %10
  %14 = getelementptr inbounds nuw i8, ptr %0, i64 36
  %15 = load i32, ptr %14, align 4
  %16 = icmp eq i32 %15, 0
  %17 = icmp sgt i32 %15, 3
  %or.cond.i = or i1 %16, %17
  %18 = or disjoint i8 %12, 16
  %.1.i = select i1 %or.cond.i, i8 %18, i8 %12
  switch i32 %15, label %21 [
    i32 1, label %19
    i32 4, label %19
  ]

19:                                               ; preds = %13, %13
  %20 = or disjoint i8 %.1.i, 32
  br label %21

21:                                               ; preds = %19, %13
  %.2.i = phi i8 [ %20, %19 ], [ %.1.i, %13 ]
  switch i32 %15, label %24 [
    i32 2, label %22
    i32 5, label %22
  ]

22:                                               ; preds = %21, %21
  %23 = or i8 %.2.i, 64
  br label %24

24:                                               ; preds = %22, %21
  %.3.i = phi i8 [ %23, %22 ], [ %.2.i, %21 ]
  switch i32 %15, label %27 [
    i32 3, label %25
    i32 6, label %25
  ]

25:                                               ; preds = %24, %24
  %26 = or i8 %.3.i, -128
  br label %27

27:                                               ; preds = %25, %24
  %.4.i = phi i8 [ %26, %25 ], [ %.3.i, %24 ]
  %or.cond23.i = icmp ugt i32 %15, 6
  %28 = or i8 %.4.i, -16
  %spec.select.i = select i1 %or.cond23.i, i8 %28, i8 %.4.i
  br label %29

29:                                               ; preds = %27, %10
  %.0.i = phi i8 [ %12, %10 ], [ %spec.select.i, %27 ]
  store i8 17, ptr %5, align 1
  %30 = getelementptr inbounds nuw i8, ptr %5, i64 1
  store i8 %.0.i, ptr %30, align 1
  %31 = tail call zeroext i1 @SDL_HIDAPI_LockRumble() #7
  br i1 %31, label %32, label %UpdateSlotLED.exit

32:                                               ; preds = %29
  %33 = load ptr, ptr %0, align 8
  %34 = call i32 @SDL_HIDAPI_SendRumbleAndUnlock(ptr noundef %33, ptr noundef nonnull %5, i32 noundef 2) #7
  br label %UpdateSlotLED.exit

UpdateSlotLED.exit:                               ; preds = %29, %32
  call void @llvm.lifetime.end.p0(i64 2, ptr nonnull %5) #7
  br label %35

35:                                               ; preds = %UpdateSlotLED.exit, %4
  ret void
}